; Function Attrs: mustprogress nofree norecurse nosync nounwind willreturn memory(argmem: read) uwtable
define noundef ptr @_ZNK32pxrInternal_v0_24__pxrReserved__22HdDataSourceLocatorSet3endEv(ptr noundef nonnull readonly align 8 dereferenceable(456) %0) local_unnamed_addr #5 align 2 {
  %2 = getelementptr inbounds nuw i8, ptr %0, i64 452
  %3 = load i32, ptr %2, align 4
  %4 = icmp ult i32 %3, 9
  %5 = load ptr, ptr %0, align 8
  %spec.select.i.i = select i1 %4, ptr %0, ptr %5
  %6 = getelementptr inbounds nuw i8, ptr %0, i64 448
  %7 = load i32, ptr %6, align 8
  %8 = zext i32 %7 to i64
  %9 = getelementptr inbounds %"class.pxrInternal_v0_24__pxrReserved__::HdDataSourceLocator", ptr %spec.select.i.i, i64 %8
  ret ptr %9
}